target datalayout = "e-m:e-p270:32:32-p271:32:32-p272:64:64-i64:64-i128:128-f80:128-n8:16:32:64-S128"
target triple = "x86_64-pc-linux-gnu"

%struct.lua_Debug = type { ptr, ptr, ptr, ptr, i32, i32, i8, i8, i8, ptr, [256 x i8] }

@.str.28 = private unnamed_addr constant [27 x i8] c"level must be non-negative\00", align 1
@.str.29 = private unnamed_addr constant [2 x i8] c"f\00", align 1
@.str.30 = private unnamed_addr constant [14 x i8] c"invalid level\00", align 1
@.str.31 = private unnamed_addr constant [50 x i8] c"no function environment for tail call at level %d\00", align 1

; Function Attrs: mustprogress uwtable
define internal void @_ZL7getfuncP9lua_Statei(ptr noundef %0, i32 noundef %1) #0 {
  %3 = alloca ptr, align 8
  %4 = alloca i32, align 4
  %5 = alloca %struct.lua_Debug, align 8
  %6 = alloca i32, align 4
  store ptr %0, ptr %3, align 8
  store i32 %1, ptr %4, align 4
  %7 = load ptr, ptr %3, align 8
  %8 = call noundef i32 @_Z8lua_typeP9lua_Statei(ptr noundef %7, i32 noundef 1)
  %9 = icmp eq i32 %8, 7
  br i1 %9, label %10, label %12

10:                                               ; preds = %2
  %11 = load ptr, ptr %3, align 8
  call void @_Z13lua_pushvalueP9lua_Statei(ptr noundef %11, i32 noundef 1)
  br label %44

12:                                               ; preds = %2
  %13 = load i32, ptr %4, align 4
  %14 = icmp ne i32 %13, 0
  br i1 %14, label %15, label %18

15:                                               ; preds = %12
  %16 = load ptr, ptr %3, align 8
  %17 = call noundef i32 @_Z15luaL_optintegerP9lua_Stateii(ptr noundef %16, i32 noundef 1, i32 noundef 1)
  br label %21

18:                                               ; preds = %12
  %19 = load ptr, ptr %3, align 8
  %20 = call noundef i32 @_Z17luaL_checkintegerP9lua_Statei(ptr noundef %19, i32 noundef 1)
  br label %21

21:                                               ; preds = %18, %15
  %22 = phi i32 [ %17, %15 ], [ %20, %18 ]
  store i32 %22, ptr %6, align 4
  %23 = load i32, ptr %6, align 4
  %24 = icmp sge i32 %23, 0
  br i1 %24, label %25, label %26

25:                                               ; preds = %21
  br label %29

26:                                               ; preds = %21
  %27 = load ptr, ptr %3, align 8
  call void @_Z14luaL_argerrorLP9lua_StateiPKc(ptr noundef %27, i32 noundef 1, ptr noundef @.str.28) #5
  unreachable

28:                                               ; No predecessors!
  br label %29

29:                                               ; preds = %28, %25
  %30 = load ptr, ptr %3, align 8
  %31 = load i32, ptr %6, align 4
  %32 = call noundef i32 @_Z11lua_getinfoP9lua_StateiPKcP9lua_Debug(ptr noundef %30, i32 noundef %31, ptr noundef @.str.29, ptr noundef %5)
  %33 = icmp eq i32 %32, 0
  br i1 %33, label %34, label %36

34:                                               ; preds = %29
  %35 = load ptr, ptr %3, align 8
  call void @_Z14luaL_argerrorLP9lua_StateiPKc(ptr noundef %35, i32 noundef 1, ptr noundef @.str.30) #5
  unreachable

36:                                               ; preds = %29
  %37 = load ptr, ptr %3, align 8
  %38 = call noundef i32 @_Z8lua_typeP9lua_Statei(ptr noundef %37, i32 noundef -1)
  %39 = icmp eq i32 %38, 0
  br i1 %39, label %40, label %43

40:                                               ; preds = %36
  %41 = load ptr, ptr %3, align 8
  %42 = load i32, ptr %6, align 4
  call void (ptr, ptr, ...) @_Z11luaL_errorLP9lua_StatePKcz(ptr noundef %41, ptr noundef @.str.31, i32 noundef %42) #5
  unreachable

43:                                               ; preds = %36
  br label %44

44:                                               ; preds = %43, %10
  ret void
}