; Function Attrs: mustprogress uwtable
define internal fastcc void @_ZL7getfuncP9lua_Statei(ptr noundef %0, i32 noundef %1) unnamed_addr #0 {
  %3 = alloca %struct.lua_Debug, align 8
  %4 = tail call noundef i32 @_Z8lua_typeP9lua_Statei(ptr noundef %0, i32 noundef 1)
  %5 = icmp eq i32 %4, 7
  br i1 %5, label %6, label %7

6:                                                ; preds = %2
  tail call void @_Z13lua_pushvalueP9lua_Statei(ptr noundef %0, i32 noundef 1)
  br label %24

7:                                                ; preds = %2
  %.not = icmp eq i32 %1, 0
  br i1 %.not, label %10, label %8

8:                                                ; preds = %7
  %9 = tail call noundef i32 @_Z15luaL_optintegerP9lua_Stateii(ptr noundef %0, i32 noundef 1, i32 noundef 1)
  br label %12

10:                                               ; preds = %7
  %11 = tail call noundef i32 @_Z17luaL_checkintegerP9lua_Statei(ptr noundef %0, i32 noundef 1)
  br label %12

12:                                               ; preds = %10, %8
  %13 = phi i32 [ %9, %8 ], [ %11, %10 ]
  %14 = icmp sgt i32 %13, -1
  br i1 %14, label %16, label %15

15:                                               ; preds = %12
  tail call void @_Z14luaL_argerrorLP9lua_StateiPKc(ptr noundef %0, i32 noundef 1, ptr noundef nonnull @.str.28) #9
  unreachable

16:                                               ; preds = %12
  %17 = call noundef i32 @_Z11lua_getinfoP9lua_StateiPKcP9lua_Debug(ptr noundef %0, i32 noundef %13, ptr noundef nonnull @.str.29, ptr noundef nonnull %3)
  %18 = icmp eq i32 %17, 0
  br i1 %18, label %19, label %20

19:                                               ; preds = %16
  call void @_Z14luaL_argerrorLP9lua_StateiPKc(ptr noundef %0, i32 noundef 1, ptr noundef nonnull @.str.30) #9
  unreachable

20:                                               ; preds = %16
  %21 = call noundef i32 @_Z8lua_typeP9lua_Statei(ptr noundef %0, i32 noundef -1)
  %22 = icmp eq i32 %21, 0
  br i1 %22, label %23, label %24

23:                                               ; preds = %20
  call void (ptr, ptr, ...) @_Z11luaL_errorLP9lua_StatePKcz(ptr noundef %0, ptr noundef nonnull @.str.31, i32 noundef %13) #9
  unreachable

24:                                               ; preds = %20, %6
  ret void
}